; Function Attrs: mustprogress nofree nounwind willreturn memory(write, argmem: readwrite) uwtable
define noundef double @_ZNK8QuantLib15COSHestonEngine2c2Ed(ptr nocapture noundef nonnull readonly align 8 dereferenceable(408) %this, double noundef %t) local_unnamed_addr #12 align 2 {
entry:
  %sigma_ = getelementptr inbounds nuw i8, ptr %this, i64 384
  %0 = load double, ptr %sigma_, align 8, !tbaa !77
  %mul = fmul double %0, %0
  %kappa_ = getelementptr inbounds nuw i8, ptr %this, i64 368
  %1 = load double, ptr %kappa_, align 8, !tbaa !75
  %mul4 = fmul double %1, %1
  %mul6 = fmul double %1, %mul4
  %theta_ = getelementptr inbounds nuw i8, ptr %this, i64 376
  %2 = load double, ptr %theta_, align 8, !tbaa !76
  %v0_ = getelementptr inbounds nuw i8, ptr %this, i64 400
  %3 = load double, ptr %v0_, align 8, !tbaa !79
  %4 = tail call double @llvm.fmuladd.f64(double %3, double -2.000000e+00, double %2)
  %mul10 = fmul double %1, 2.000000e+00
  %mul11 = fmul double %t, %mul10
  %call = tail call double @exp(double noundef %mul11) #29, !tbaa !108
  %mul12 = fmul double %mul6, 8.000000e+00
  %mul13 = fmul double %t, %mul12
  %mul16 = fmul double %mul4, 8.000000e+00
  %rho_ = getelementptr inbounds nuw i8, ptr %this, i64 392
  %5 = load double, ptr %rho_, align 8, !tbaa !78
  %mul19 = fmul double %0, %5
  %mul20 = fmul double %t, %mul19
  %6 = tail call double @llvm.fmuladd.f64(double %mul20, double %2, double %2)
  %sub = fsub double %6, %3
  %7 = fneg double %sub
  %neg = fmul double %mul16, %7
  %8 = tail call double @llvm.fmuladd.f64(double %mul13, double %2, double %neg)
  %mul28 = fmul double %3, 2.000000e+00
  %9 = tail call double @llvm.fmuladd.f64(double %2, double -5.000000e+00, double %mul28)
  %10 = tail call double @llvm.fmuladd.f64(double %mul, double %9, double %8)
  %mul33 = fmul double %0, %mul10
  %mul35 = fmul double %5, 8.000000e+00
  %mul39 = fmul double %t, %0
  %mul41 = fmul double %mul39, %2
  %11 = tail call double @llvm.fmuladd.f64(double %mul35, double %2, double %mul41)
  %neg46 = fmul double %5, -4.000000e+00
  %12 = tail call double @llvm.fmuladd.f64(double %neg46, double %3, double %11)
  %13 = tail call double @llvm.fmuladd.f64(double %mul33, double %12, double %10)
  %mul48 = fmul double %call, %13
  %14 = tail call double @llvm.fmuladd.f64(double %mul, double %4, double %mul48)
  %mul50 = fmul double %t, %1
  %call51 = tail call double @exp(double noundef %mul50) #29, !tbaa !108
  %mul52 = fmul double %call51, 4.000000e+00
  %mul55 = fmul double %mul4, 2.000000e+00
  %15 = tail call double @llvm.fmuladd.f64(double %mul19, double %t, double -1.000000e+00)
  %mul60 = fmul double %mul55, %15
  %sub63 = fsub double %2, %3
  %16 = fneg double %sub63
  %neg65 = fmul double %mul60, %16
  %17 = tail call double @llvm.fmuladd.f64(double %mul, double %2, double %neg65)
  %mul68 = fmul double %0, %1
  %mul76 = fmul double %5, 2.000000e+00
  %18 = tail call double @llvm.fmuladd.f64(double %2, double -2.000000e+00, double %3)
  %mul80 = fmul double %18, %mul76
  %19 = tail call double @llvm.fmuladd.f64(double %mul39, double %sub63, double %mul80)
  %20 = tail call double @llvm.fmuladd.f64(double %mul68, double %19, double %17)
  %21 = tail call double @llvm.fmuladd.f64(double %mul52, double %20, double %14)
  %call86 = tail call double @exp(double noundef %mul11) #29, !tbaa !108
  %mul87 = fmul double %call86, 8.000000e+00
  %mul88 = fmul double %mul6, %mul87
  %div = fdiv double %21, %mul88
  ret double %div
}